; ModuleID = 'source-C-CXX/19/36.c'
source_filename = "source-C-CXX/19/36.c"
target datalayout = "e-m:e-p270:32:32-p271:32:32-p272:64:64-i64:64-f80:128-n8:16:32:64-S128"
target triple = "x86_64-pc-linux-gnu"

@.str.2 = private unnamed_addr constant [5 x i8] c"%s%s\00", align 1

; Function Attrs: nofree nounwind sspstrong uwtable
define dso_local void @str(i8* nocapture readonly %0, i8* nocapture readonly %1) local_unnamed_addr #0 {
  %3 = load i8, i8* %0, align 1, !tbaa !5
  %4 = tail call i64 @strlen(i8* noundef nonnull %0) #5
  %5 = trunc i64 %4 to i32
  %6 = icmp sgt i32 %5, 1
  br i1 %6, label %7, label %41

7:                                                ; preds = %2
  %8 = sext i8 %3 to i32
  %9 = and i64 %4, 4294967295
  %10 = add nsw i64 %9, -1
  %11 = add nsw i64 %9, -2
  %12 = and i64 %10, 3
  %13 = icmp ult i64 %11, 3
  br i1 %13, label %16, label %14

14:                                               ; preds = %7
  %15 = and i64 %10, -4
  br label %48

16:                                               ; preds = %48, %7
  %17 = phi i64 [ 1, %7 ], [ %84, %48 ]
  %18 = phi i32 [ undef, %7 ], [ %83, %48 ]
  %19 = phi i32 [ %8, %7 ], [ %81, %48 ]
  %20 = icmp eq i64 %12, 0
  br i1 %20, label %36, label %21

21:                                               ; preds = %16, %21
  %22 = phi i64 [ %33, %21 ], [ %17, %16 ]
  %23 = phi i32 [ %32, %21 ], [ %18, %16 ]
  %24 = phi i32 [ %30, %21 ], [ %19, %16 ]
  %25 = phi i64 [ %34, %21 ], [ %12, %16 ]
  %26 = getelementptr inbounds i8, i8* %0, i64 %22
  %27 = load i8, i8* %26, align 1, !tbaa !5
  %28 = sext i8 %27 to i32
  %29 = icmp slt i32 %24, %28
  %30 = select i1 %29, i32 %28, i32 %24
  %31 = trunc i64 %22 to i32
  %32 = select i1 %29, i32 %31, i32 %23
  %33 = add nuw nsw i64 %22, 1
  %34 = add i64 %25, -1
  %35 = icmp eq i64 %34, 0
  br i1 %35, label %36, label %21, !llvm.loop !8

36:                                               ; preds = %21, %16
  %37 = phi i32 [ %18, %16 ], [ %32, %21 ]
  %38 = icmp slt i32 %37, 0
  br i1 %38, label %39, label %41

39:                                               ; preds = %36
  %40 = add nsw i32 %37, 1
  br label %87

41:                                               ; preds = %2, %36
  %42 = phi i32 [ %37, %36 ], [ undef, %2 ]
  %43 = add nuw i32 %42, 1
  %44 = zext i32 %43 to i64
  %45 = sext i8 %3 to i32
  %46 = tail call i32 @putchar(i32 %45)
  %47 = icmp eq i32 %42, 0
  br i1 %47, label %87, label %101, !llvm.loop !10

48:                                               ; preds = %48, %14
  %49 = phi i64 [ 1, %14 ], [ %84, %48 ]
  %50 = phi i32 [ undef, %14 ], [ %83, %48 ]
  %51 = phi i32 [ %8, %14 ], [ %81, %48 ]
  %52 = phi i64 [ %15, %14 ], [ %85, %48 ]
  %53 = getelementptr inbounds i8, i8* %0, i64 %49
  %54 = load i8, i8* %53, align 1, !tbaa !5
  %55 = sext i8 %54 to i32
  %56 = icmp slt i32 %51, %55
  %57 = select i1 %56, i32 %55, i32 %51
  %58 = trunc i64 %49 to i32
  %59 = select i1 %56, i32 %58, i32 %50
  %60 = add nuw nsw i64 %49, 1
  %61 = getelementptr inbounds i8, i8* %0, i64 %60
  %62 = load i8, i8* %61, align 1, !tbaa !5
  %63 = sext i8 %62 to i32
  %64 = icmp slt i32 %57, %63
  %65 = select i1 %64, i32 %63, i32 %57
  %66 = trunc i64 %60 to i32
  %67 = select i1 %64, i32 %66, i32 %59
  %68 = add nuw nsw i64 %49, 2
  %69 = getelementptr inbounds i8, i8* %0, i64 %68
  %70 = load i8, i8* %69, align 1, !tbaa !5
  %71 = sext i8 %70 to i32
  %72 = icmp slt i32 %65, %71
  %73 = select i1 %72, i32 %71, i32 %65
  %74 = trunc i64 %68 to i32
  %75 = select i1 %72, i32 %74, i32 %67
  %76 = add nuw nsw i64 %49, 3
  %77 = getelementptr inbounds i8, i8* %0, i64 %76
  %78 = load i8, i8* %77, align 1, !tbaa !5
  %79 = sext i8 %78 to i32
  %80 = icmp slt i32 %73, %79
  %81 = select i1 %80, i32 %79, i32 %73
  %82 = trunc i64 %76 to i32
  %83 = select i1 %80, i32 %82, i32 %75
  %84 = add nuw nsw i64 %49, 4
  %85 = add i64 %52, -4
  %86 = icmp eq i64 %85, 0
  br i1 %86, label %16, label %48, !llvm.loop !12

87:                                               ; preds = %101, %41, %39
  %88 = phi i32 [ %40, %39 ], [ %43, %41 ], [ %43, %101 ]
  %89 = load i8, i8* %1, align 1, !tbaa !5
  %90 = sext i8 %89 to i32
  %91 = tail call i32 @putchar(i32 %90)
  %92 = getelementptr inbounds i8, i8* %1, i64 1
  %93 = load i8, i8* %92, align 1, !tbaa !5
  %94 = sext i8 %93 to i32
  %95 = tail call i32 @putchar(i32 %94)
  %96 = getelementptr inbounds i8, i8* %1, i64 2
  %97 = load i8, i8* %96, align 1, !tbaa !5
  %98 = sext i8 %97 to i32
  %99 = tail call i32 @putchar(i32 %98)
  %100 = icmp slt i32 %88, %5
  br i1 %100, label %109, label %120

101:                                              ; preds = %41, %101
  %102 = phi i64 [ %107, %101 ], [ 1, %41 ]
  %103 = getelementptr inbounds i8, i8* %0, i64 %102
  %104 = load i8, i8* %103, align 1, !tbaa !5
  %105 = sext i8 %104 to i32
  %106 = tail call i32 @putchar(i32 %105)
  %107 = add nuw nsw i64 %102, 1
  %108 = icmp eq i64 %107, %44
  br i1 %108, label %87, label %101, !llvm.loop !10

109:                                              ; preds = %87
  %110 = sext i32 %88 to i64
  br label %111

111:                                              ; preds = %109, %111
  %112 = phi i64 [ %110, %109 ], [ %117, %111 ]
  %113 = getelementptr inbounds i8, i8* %0, i64 %112
  %114 = load i8, i8* %113, align 1, !tbaa !5
  %115 = sext i8 %114 to i32
  %116 = tail call i32 @putchar(i32 %115)
  %117 = add nsw i64 %112, 1
  %118 = trunc i64 %117 to i32
  %119 = icmp eq i32 %118, %5
  br i1 %119, label %120, label %111, !llvm.loop !13

120:                                              ; preds = %111, %87
  %121 = tail call i32 @putchar(i32 10)
  ret void
}

; Function Attrs: argmemonly mustprogress nofree nosync nounwind willreturn
declare void @llvm.lifetime.start.p0i8(i64 immarg, i8* nocapture) #1

; Function Attrs: argmemonly mustprogress nofree nounwind readonly willreturn
declare i64 @strlen(i8* nocapture) local_unnamed_addr #2

; Function Attrs: argmemonly mustprogress nofree nosync nounwind willreturn
declare void @llvm.lifetime.end.p0i8(i64 immarg, i8* nocapture) #1

; Function Attrs: nofree nounwind sspstrong uwtable
define dso_local void @main() local_unnamed_addr #0 {
  %1 = alloca [10 x i8], align 1
  %2 = alloca [3 x i8], align 1
  %3 = getelementptr inbounds [10 x i8], [10 x i8]* %1, i64 0, i64 0
  call void @llvm.lifetime.start.p0i8(i64 10, i8* nonnull %3) #6
  %4 = getelementptr inbounds [3 x i8], [3 x i8]* %2, i64 0, i64 0
  call void @llvm.lifetime.start.p0i8(i64 3, i8* nonnull %4) #6
  %5 = call i32 (i8*, ...) @__isoc99_scanf(i8* getelementptr inbounds ([5 x i8], [5 x i8]* @.str.2, i64 0, i64 0), i8* nonnull %3, i8* nonnull %4)
  %6 = icmp eq i32 %5, -1
  br i1 %6, label %10, label %7

7:                                                ; preds = %0, %7
  call void @str(i8* nonnull %3, i8* nonnull %4)
  %8 = call i32 (i8*, ...) @__isoc99_scanf(i8* getelementptr inbounds ([5 x i8], [5 x i8]* @.str.2, i64 0, i64 0), i8* nonnull %3, i8* nonnull %4)
  %9 = icmp eq i32 %8, -1
  br i1 %9, label %10, label %7, !llvm.loop !14

10:                                               ; preds = %7, %0
  call void @llvm.lifetime.end.p0i8(i64 3, i8* nonnull %4) #6
  call void @llvm.lifetime.end.p0i8(i64 10, i8* nonnull %3) #6
  ret void
}

; Function Attrs: nofree nounwind
declare noundef i32 @__isoc99_scanf(i8* nocapture noundef readonly, ...) local_unnamed_addr #3

; Function Attrs: nofree nounwind
declare noundef i32 @putchar(i32 noundef) local_unnamed_addr #4


!llvm.module.flags = !{!0, !1, !2, !3}
!llvm.ident = !{!4}

!0 = !{i32 1, !"wchar_size", i32 4}
!1 = !{i32 7, !"PIC Level", i32 2}
!2 = !{i32 7, !"PIE Level", i32 2}
!3 = !{i32 7, !"uwtable", i32 1}
!4 = !{!"clang version 13.0.0"}
!5 = !{!6, !6, i64 0}
!6 = !{!"omnipotent char", !7, i64 0}
!7 = !{!"Simple C/C++ TBAA"}
!8 = distinct !{!8, !9}
!9 = !{!"llvm.loop.unroll.disable"}
!10 = distinct !{!10, !11}
!11 = !{!"llvm.loop.mustprogress"}
!12 = distinct !{!12, !11}
!13 = distinct !{!13, !11}
!14 = distinct !{!14, !11}
